; Function Attrs: mustprogress uwtable
define internal void @"_ZNSt17_Function_handlerIFvP11lean_objectS1_EZNK4lean11environment17for_each_constantERKSt8functionIFvRKNS3_13constant_infoEEEE3$_0E9_M_invokeERKSt9_Any_dataOS1_SI_"(ptr noundef nonnull readonly align 8 captures(none) dereferenceable(16) %0, ptr nonnull readnone align 8 captures(none) %1, ptr noundef nonnull readonly align 8 captures(none) dereferenceable(8) %2) #0 align 2 personality ptr @__gxx_personality_v0 {
  %4 = alloca %"class.lean::constant_info", align 8
  %.val = load ptr, ptr %2, align 8, !tbaa !24
  call void @llvm.lifetime.start.p0(i64 8, ptr nonnull %4) #20
  store ptr %.val, ptr %4, align 8, !tbaa !3
  %5 = ptrtoint ptr %.val to i64
  %6 = and i64 %5, 1
  %.not.i.i.i.i.i.i = icmp eq i64 %6, 0
  br i1 %.not.i.i.i.i.i.i, label %7, label %_ZN4lean13constant_infoC2EP11lean_objectb.exit.i.i.i

7:                                                ; preds = %3
  %.val.i.i.i.i.i.i.i = load i32, ptr %.val, align 4, !tbaa !8
  %8 = icmp sgt i32 %.val.i.i.i.i.i.i.i, 0
  br i1 %8, label %9, label %11, !prof !11

9:                                                ; preds = %7
  %10 = add nuw nsw i32 %.val.i.i.i.i.i.i.i, 1
  store i32 %10, ptr %.val, align 4, !tbaa !8
  br label %_ZN4lean13constant_infoC2EP11lean_objectb.exit.i.i.i

11:                                               ; preds = %7
  %.not.i.i.i.i.i.i.i = icmp eq i32 %.val.i.i.i.i.i.i.i, 0
  br i1 %.not.i.i.i.i.i.i.i, label %_ZN4lean13constant_infoC2EP11lean_objectb.exit.i.i.i, label %12

12:                                               ; preds = %11
  tail call void @lean_inc_ref_cold(ptr noundef nonnull %.val)
  br label %_ZN4lean13constant_infoC2EP11lean_objectb.exit.i.i.i

_ZN4lean13constant_infoC2EP11lean_objectb.exit.i.i.i: ; preds = %12, %11, %9, %3
  %13 = load ptr, ptr %0, align 8, !tbaa !148
  %14 = getelementptr inbounds nuw i8, ptr %13, i64 16
  %15 = load ptr, ptr %14, align 8, !tbaa !94
  %.not.i.i.i.i.i = icmp eq ptr %15, null
  br i1 %.not.i.i.i.i.i, label %16, label %17

16:                                               ; preds = %_ZN4lean13constant_infoC2EP11lean_objectb.exit.i.i.i
  invoke void @_ZSt25__throw_bad_function_callv() #24
          to label %.noexc.i.i.i unwind label %33

.noexc.i.i.i:                                     ; preds = %16
  unreachable

17:                                               ; preds = %_ZN4lean13constant_infoC2EP11lean_objectb.exit.i.i.i
  %18 = getelementptr inbounds nuw i8, ptr %13, i64 24
  %19 = load ptr, ptr %18, align 8, !tbaa !150
  invoke void %19(ptr noundef nonnull align 8 dereferenceable(32) %13, ptr noundef nonnull align 8 dereferenceable(8) %4)
          to label %_ZNKSt8functionIFvRKN4lean13constant_infoEEEclES3_.exit.i.i.i unwind label %33

_ZNKSt8functionIFvRKN4lean13constant_infoEEEclES3_.exit.i.i.i: ; preds = %17
  %20 = load ptr, ptr %4, align 8, !tbaa !3
  %21 = ptrtoint ptr %20 to i64
  %22 = and i64 %21, 1
  %.not.i.i4.i.i.i = icmp eq i64 %22, 0
  br i1 %.not.i.i4.i.i.i, label %23, label %"_ZSt10__invoke_rIvRZNK4lean11environment17for_each_constantERKSt8functionIFvRKNS0_13constant_infoEEEE3$_0JP11lean_objectSD_EENSt9enable_ifIXsr7is_voidIT_EE5valueESF_E4typeEOT0_DpOT1_.exit"

23:                                               ; preds = %_ZNKSt8functionIFvRKN4lean13constant_infoEEEclES3_.exit.i.i.i
  %24 = load i32, ptr %20, align 4, !tbaa !8
  %25 = icmp sgt i32 %24, 1
  br i1 %25, label %26, label %28, !prof !11

26:                                               ; preds = %23
  %27 = add nsw i32 %24, -1
  store i32 %27, ptr %20, align 4, !tbaa !8
  br label %"_ZSt10__invoke_rIvRZNK4lean11environment17for_each_constantERKSt8functionIFvRKNS0_13constant_infoEEEE3$_0JP11lean_objectSD_EENSt9enable_ifIXsr7is_voidIT_EE5valueESF_E4typeEOT0_DpOT1_.exit"

28:                                               ; preds = %23
  %.not.i.i.i5.i.i.i = icmp eq i32 %24, 0
  br i1 %.not.i.i.i5.i.i.i, label %"_ZSt10__invoke_rIvRZNK4lean11environment17for_each_constantERKSt8functionIFvRKNS0_13constant_infoEEEE3$_0JP11lean_objectSD_EENSt9enable_ifIXsr7is_voidIT_EE5valueESF_E4typeEOT0_DpOT1_.exit", label %29

29:                                               ; preds = %28
  invoke void @lean_dec_ref_cold(ptr noundef nonnull %20)
          to label %"_ZSt10__invoke_rIvRZNK4lean11environment17for_each_constantERKSt8functionIFvRKNS0_13constant_infoEEEE3$_0JP11lean_objectSD_EENSt9enable_ifIXsr7is_voidIT_EE5valueESF_E4typeEOT0_DpOT1_.exit" unwind label %30

30:                                               ; preds = %29
  %31 = landingpad { ptr, i32 }
          catch ptr null
  %32 = extractvalue { ptr, i32 } %31, 0
  call void @__clang_call_terminate(ptr %32) #23
  unreachable

33:                                               ; preds = %17, %16
  %34 = landingpad { ptr, i32 }
          cleanup
  call void @_ZN4lean10object_refD2Ev(ptr noundef nonnull align 8 dereferenceable(8) %4) #20
  call void @llvm.lifetime.end.p0(i64 8, ptr nonnull %4) #20
  resume { ptr, i32 } %34

"_ZSt10__invoke_rIvRZNK4lean11environment17for_each_constantERKSt8functionIFvRKNS0_13constant_infoEEEE3$_0JP11lean_objectSD_EENSt9enable_ifIXsr7is_voidIT_EE5valueESF_E4typeEOT0_DpOT1_.exit": ; preds = %_ZNKSt8functionIFvRKN4lean13constant_infoEEEclES3_.exit.i.i.i, %26, %28, %29
  call void @llvm.lifetime.end.p0(i64 8, ptr nonnull %4) #20
  ret void
}